target datalayout = "e-m:e-p270:32:32-p271:32:32-p272:64:64-i64:64-i128:128-f80:128-n8:16:32:64-S128"
target triple = "x86_64-pc-linux-gnu"

%"class.ncnn::Mat" = type { ptr, ptr, i64, i32, ptr, i32, i32, i32, i32, i32, i64 }

; Function Attrs: mustprogress uwtable
define hidden void @_ZNK4ncnn3Mat9to_pixelsEPhi(ptr noundef nonnull align 8 dereferenceable(72) %0, ptr noundef %1, i32 noundef %2) #0 align 2 {
  %4 = alloca ptr, align 8
  %5 = alloca ptr, align 8
  %6 = alloca i32, align 4
  %7 = alloca i32, align 4
  store ptr %0, ptr %4, align 8, !tbaa !25
  store ptr %1, ptr %5, align 8, !tbaa !4
  store i32 %2, ptr %6, align 4, !tbaa !9
  %8 = load ptr, ptr %4, align 8
  call void @llvm.lifetime.start.p0(i64 4, ptr %7) #9
  %9 = load i32, ptr %6, align 4, !tbaa !9
  %10 = and i32 %9, -65536
  %11 = icmp ne i32 %10, 0
  br i1 %11, label %12, label %15

12:                                               ; preds = %3
  %13 = load i32, ptr %6, align 4, !tbaa !9
  %14 = ashr i32 %13, 16
  br label %18

15:                                               ; preds = %3
  %16 = load i32, ptr %6, align 4, !tbaa !9
  %17 = and i32 %16, 65535
  br label %18

18:                                               ; preds = %15, %12
  %19 = phi i32 [ %14, %12 ], [ %17, %15 ]
  store i32 %19, ptr %7, align 4, !tbaa !9
  %20 = load i32, ptr %7, align 4, !tbaa !9
  %21 = icmp eq i32 %20, 1
  br i1 %21, label %25, label %22

22:                                               ; preds = %18
  %23 = load i32, ptr %7, align 4, !tbaa !9
  %24 = icmp eq i32 %23, 2
  br i1 %24, label %25, label %31

25:                                               ; preds = %22, %18
  %26 = load ptr, ptr %5, align 8, !tbaa !4
  %27 = load i32, ptr %6, align 4, !tbaa !9
  %28 = getelementptr inbounds nuw %"class.ncnn::Mat", ptr %8, i32 0, i32 6
  %29 = load i32, ptr %28, align 4, !tbaa !35
  %30 = mul nsw i32 %29, 3
  call void @_ZNK4ncnn3Mat9to_pixelsEPhii(ptr noundef nonnull align 8 dereferenceable(72) %8, ptr noundef %26, i32 noundef %27, i32 noundef %30)
  br label %54

31:                                               ; preds = %22
  %32 = load i32, ptr %7, align 4, !tbaa !9
  %33 = icmp eq i32 %32, 3
  br i1 %33, label %34, label %40

34:                                               ; preds = %31
  %35 = load ptr, ptr %5, align 8, !tbaa !4
  %36 = load i32, ptr %6, align 4, !tbaa !9
  %37 = getelementptr inbounds nuw %"class.ncnn::Mat", ptr %8, i32 0, i32 6
  %38 = load i32, ptr %37, align 4, !tbaa !35
  %39 = mul nsw i32 %38, 1
  call void @_ZNK4ncnn3Mat9to_pixelsEPhii(ptr noundef nonnull align 8 dereferenceable(72) %8, ptr noundef %35, i32 noundef %36, i32 noundef %39)
  br label %53

40:                                               ; preds = %31
  %41 = load i32, ptr %7, align 4, !tbaa !9
  %42 = icmp eq i32 %41, 4
  br i1 %42, label %46, label %43

43:                                               ; preds = %40
  %44 = load i32, ptr %7, align 4, !tbaa !9
  %45 = icmp eq i32 %44, 5
  br i1 %45, label %46, label %52

46:                                               ; preds = %43, %40
  %47 = load ptr, ptr %5, align 8, !tbaa !4
  %48 = load i32, ptr %6, align 4, !tbaa !9
  %49 = getelementptr inbounds nuw %"class.ncnn::Mat", ptr %8, i32 0, i32 6
  %50 = load i32, ptr %49, align 4, !tbaa !35
  %51 = mul nsw i32 %50, 4
  call void @_ZNK4ncnn3Mat9to_pixelsEPhii(ptr noundef nonnull align 8 dereferenceable(72) %8, ptr noundef %47, i32 noundef %48, i32 noundef %51)
  br label %52

52:                                               ; preds = %46, %43
  br label %53

53:                                               ; preds = %52, %34
  br label %54

54:                                               ; preds = %53, %25
  call void @llvm.lifetime.end.p0(i64 4, ptr %7) #9
  ret void
}