; Function Attrs: mustprogress nofree nounwind uwtable
define hidden void @_ZNK4ncnn3Mat9to_pixelsEPhi(ptr noundef nonnull readonly align 8 captures(none) dereferenceable(72) %0, ptr noundef writeonly captures(none) %1, i32 noundef %2) local_unnamed_addr #8 align 2 {
  %.not = icmp ult i32 %2, 65536
  %4 = ashr i32 %2, 16
  %5 = select i1 %.not, i32 %2, i32 %4
  %6 = add nsw i32 %5, -1
  %or.cond = icmp ult i32 %6, 2
  br i1 %or.cond, label %7, label %11

7:                                                ; preds = %3
  %8 = getelementptr inbounds nuw i8, ptr %0, i64 44
  %9 = load i32, ptr %8, align 4, !tbaa !42
  %10 = mul nsw i32 %9, 3
  br label %.sink.split

11:                                               ; preds = %3
  %12 = icmp eq i32 %5, 3
  br i1 %12, label %13, label %16

13:                                               ; preds = %11
  %14 = getelementptr inbounds nuw i8, ptr %0, i64 44
  %15 = load i32, ptr %14, align 4, !tbaa !42
  br label %.sink.split

16:                                               ; preds = %11
  %17 = and i32 %5, -2
  %or.cond3 = icmp eq i32 %17, 4
  br i1 %or.cond3, label %18, label %22

18:                                               ; preds = %16
  %19 = getelementptr inbounds nuw i8, ptr %0, i64 44
  %20 = load i32, ptr %19, align 4, !tbaa !42
  %21 = shl nsw i32 %20, 2
  br label %.sink.split

.sink.split:                                      ; preds = %7, %18, %13
  %.sink = phi i32 [ %15, %13 ], [ %21, %18 ], [ %10, %7 ]
  tail call void @_ZNK4ncnn3Mat9to_pixelsEPhii(ptr noundef nonnull align 8 dereferenceable(72) %0, ptr noundef %1, i32 noundef %2, i32 noundef %.sink)
  br label %22

22:                                               ; preds = %.sink.split, %16
  ret void
}